; Function Attrs: nounwind uwtable
define void @png_set_cHRM_XYZ(ptr noalias noundef %0, ptr noalias noundef %1, double noundef %2, double noundef %3, double noundef %4, double noundef %5, double noundef %6, double noundef %7, double noundef %8, double noundef %9, double noundef %10) local_unnamed_addr #2 {
  %12 = alloca %struct.png_XYZ, align 4
  %13 = tail call i32 @png_fixed(ptr noundef %0, double noundef %2, ptr noundef nonnull @.str.2) #12
  %14 = tail call i32 @png_fixed(ptr noundef %0, double noundef %3, ptr noundef nonnull @.str.3) #12
  %15 = tail call i32 @png_fixed(ptr noundef %0, double noundef %4, ptr noundef nonnull @.str.8) #12
  %16 = tail call i32 @png_fixed(ptr noundef %0, double noundef %5, ptr noundef nonnull @.str.4) #12
  %17 = tail call i32 @png_fixed(ptr noundef %0, double noundef %6, ptr noundef nonnull @.str.5) #12
  %18 = tail call i32 @png_fixed(ptr noundef %0, double noundef %7, ptr noundef nonnull @.str.9) #12
  %19 = tail call i32 @png_fixed(ptr noundef %0, double noundef %8, ptr noundef nonnull @.str.6) #12
  %20 = tail call i32 @png_fixed(ptr noundef %0, double noundef %9, ptr noundef nonnull @.str.7) #12
  %21 = tail call i32 @png_fixed(ptr noundef %0, double noundef %10, ptr noundef nonnull @.str.10) #12
  tail call void @llvm.experimental.noalias.scope.decl(metadata !10)
  call void @llvm.lifetime.start.p0(i64 36, ptr nonnull %12)
  %22 = icmp eq ptr %0, null
  %23 = icmp eq ptr %1, null
  %or.cond.i = or i1 %22, %23
  br i1 %or.cond.i, label %png_set_cHRM_XYZ_fixed.exit, label %24

24:                                               ; preds = %11
  store i32 %13, ptr %12, align 4, !noalias !13
  %25 = getelementptr inbounds i8, ptr %12, i64 4
  store i32 %14, ptr %25, align 4, !noalias !13
  %26 = getelementptr inbounds i8, ptr %12, i64 8
  store i32 %15, ptr %26, align 4, !noalias !13
  %27 = getelementptr inbounds i8, ptr %12, i64 12
  store i32 %16, ptr %27, align 4, !noalias !13
  %28 = getelementptr inbounds i8, ptr %12, i64 16
  store i32 %17, ptr %28, align 4, !noalias !13
  %29 = getelementptr inbounds i8, ptr %12, i64 20
  store i32 %18, ptr %29, align 4, !noalias !13
  %30 = getelementptr inbounds i8, ptr %12, i64 24
  store i32 %19, ptr %30, align 4, !noalias !13
  %31 = getelementptr inbounds i8, ptr %12, i64 28
  store i32 %20, ptr %31, align 4, !noalias !13
  %32 = getelementptr inbounds i8, ptr %12, i64 32
  store i32 %21, ptr %32, align 4, !noalias !13
  %33 = getelementptr inbounds i8, ptr %1, i64 52
  %34 = call i32 @png_colorspace_set_endpoints(ptr noundef nonnull %0, ptr noundef nonnull %33, ptr noundef nonnull %12, i32 noundef 2) #12
  %.not.i = icmp eq i32 %34, 0
  br i1 %.not.i, label %39, label %35

35:                                               ; preds = %24
  %36 = getelementptr inbounds i8, ptr %1, i64 126
  %37 = load i16, ptr %36, align 2, !alias.scope !10, !noalias !15
  %38 = or i16 %37, 16
  store i16 %38, ptr %36, align 2, !alias.scope !10, !noalias !15
  br label %39

39:                                               ; preds = %35, %24
  call void @png_colorspace_sync_info(ptr noundef nonnull %0, ptr noundef nonnull %1) #12
  br label %png_set_cHRM_XYZ_fixed.exit

png_set_cHRM_XYZ_fixed.exit:                      ; preds = %11, %39
  call void @llvm.lifetime.end.p0(i64 36, ptr nonnull %12)
  ret void
}